target datalayout = "e-m:e-p270:32:32-p271:32:32-p272:64:64-i64:64-i128:128-f80:128-n8:16:32:64-S128"
target triple = "x86_64-pc-linux-gnu"

%class.QPointer = type { %class.QWeakPointer }
%class.QWeakPointer = type { ptr, ptr }
%class.QString = type { %struct.QArrayDataPointer }
%struct.QArrayDataPointer = type { ptr, ptr, i64 }
%class.QVariant = type { %"struct.QVariant::Private" }
%"struct.QVariant::Private" = type { %union.anon, i64 }
%union.anon = type { ptr, [16 x i8] }
%class.QSharedPointer = type { ptr, ptr }
%struct.QLatin1Char = type { i8 }
%class.IOGraphDialog = type { %class.WiresharkDialog.base, ptr, ptr, %class.QPointer, ptr, %class.QList.5, %class.QString, ptr, ptr, i32, %struct.nstime_t, i8, ptr, %class.QPoint, %class.QMenu, ptr, i8, i8, i8, i8, i32, %class.QSharedPointer, %class.QSharedPointer.9 }
%class.WiresharkDialog.base = type <{ %class.GeometryStateDialog, ptr, i8, [7 x i8], %class.QString, %class.QList.1, i32, i8 }>
%class.GeometryStateDialog = type { %class.QDialog, %class.QString, ptr }
%class.QDialog = type { %class.QWidget }
%class.QWidget = type { %class.QObject, %class.QPaintDevice.base, ptr }
%class.QObject = type { ptr, %class.QScopedPointer }
%class.QScopedPointer = type { ptr }
%class.QPaintDevice.base = type <{ ptr, i16 }>
%class.QList.1 = type { %struct.QArrayDataPointer.4 }
%struct.QArrayDataPointer.4 = type { ptr, ptr, i64 }
%class.QList.5 = type { %struct.QArrayDataPointer.8 }
%struct.QArrayDataPointer.8 = type { ptr, ptr, i64 }
%struct.nstime_t = type { i64, i32 }
%class.QPoint = type { i32, i32 }
%class.QMenu = type { %class.QWidget }
%class.QSharedPointer.9 = type { ptr, ptr }
%class.Ui_IOGraphDialog = type { ptr, ptr, ptr, ptr, ptr, ptr, ptr, ptr, ptr, ptr, ptr, ptr, ptr, ptr, ptr, ptr, ptr, ptr, ptr, ptr, ptr, ptr, ptr, ptr, ptr, ptr, ptr, ptr, ptr, ptr, ptr, ptr, ptr, ptr, ptr, ptr, ptr, ptr, ptr, ptr, ptr, ptr, ptr, ptr, ptr, ptr }
%class.QCustomPlot = type <{ %class.QWidget, ptr, ptr, ptr, ptr, ptr, %class.QRect, double, ptr, i8, [7 x i8], %class.QList.10, %class.QList.14, %class.QList.18, %class.QList.22, %class.QFlags, %class.QFlags, %class.QFlags.26, i32, i8, [7 x i8], %class.QBrush, %class.QPixmap, %class.QPixmap, i8, [3 x i8], i32, ptr, %class.QFlags.29, i32, i32, [4 x i8], ptr, i8, [7 x i8], %class.QList.30, %class.QPoint, i8, [7 x i8], %class.QPointer.34, %class.QPointer.34, %class.QVariant, %class.QVariant, i8, i8, [6 x i8], double, double, i32, %class.QFlags, i8, [7 x i8] }>
%class.QRect = type { i32, i32, i32, i32 }
%class.QList.10 = type { %struct.QArrayDataPointer.13 }
%struct.QArrayDataPointer.13 = type { ptr, ptr, i64 }
%class.QList.14 = type { %struct.QArrayDataPointer.17 }
%struct.QArrayDataPointer.17 = type { ptr, ptr, i64 }
%class.QList.18 = type { %struct.QArrayDataPointer.21 }
%struct.QArrayDataPointer.21 = type { ptr, ptr, i64 }
%class.QList.22 = type { %struct.QArrayDataPointer.25 }
%struct.QArrayDataPointer.25 = type { ptr, ptr, i64 }
%class.QFlags.26 = type { i32 }
%class.QBrush = type { %"class.std::unique_ptr" }
%"class.std::unique_ptr" = type { %"struct.std::__uniq_ptr_data" }
%"struct.std::__uniq_ptr_data" = type { %"class.std::__uniq_ptr_impl" }
%"class.std::__uniq_ptr_impl" = type { %"class.std::tuple" }
%"class.std::tuple" = type { %"struct.std::_Tuple_impl" }
%"struct.std::_Tuple_impl" = type { %"struct.std::_Head_base.28" }
%"struct.std::_Head_base.28" = type { ptr }
%class.QPixmap = type { %class.QPaintDevice.base, %class.QExplicitlySharedDataPointer }
%class.QExplicitlySharedDataPointer = type { ptr }
%class.QFlags.29 = type { i32 }
%class.QList.30 = type { %struct.QArrayDataPointer.33 }
%struct.QArrayDataPointer.33 = type { ptr, ptr, i64 }
%class.QPointer.34 = type { %class.QWeakPointer }
%class.QFlags = type { i32 }
%class.QList = type { %struct.QArrayDataPointer.0 }
%struct.QArrayDataPointer.0 = type { ptr, ptr, i64 }
%class.QColor = type <{ i32, %"union.QColor::CT", [2 x i8] }>
%"union.QColor::CT" = type { %struct.anon }
%struct.anon = type { i16, i16, i16, i16, i16 }
%class.QPen = type { ptr }
%class.QCPLayerable.base = type <{ %class.QObject, i8, [7 x i8], ptr, %class.QPointer.34, ptr, i8 }>
%class.QCPRange = type { double, double }
%class.QCPAxis = type { %class.QCPLayerable.base, i32, ptr, i32, i32, %class.QFlags.35, %class.QFlags.35, %class.QPen, %class.QPen, %class.QString, %class.QFont, %class.QFont, %class.QColor, %class.QColor, i8, [7 x i8], %class.QFont, %class.QFont, %class.QColor, %class.QColor, i32, %struct.QLatin1Char, i8, i8, i8, %class.QPen, %class.QPen, %class.QPen, %class.QPen, %class.QCPRange, i8, i32, ptr, ptr, %class.QSharedPointer, %class.QList.41, %class.QList, %class.QList.41, i8, i32, i8, %class.QCPRange, %class.QFlags, %class.QFlags }
%class.QFlags.35 = type { i32 }
%class.QFont = type <{ %class.QExplicitlySharedDataPointer.36, i32, [4 x i8] }>
%class.QExplicitlySharedDataPointer.36 = type { ptr }
%class.QList.41 = type { %struct.QArrayDataPointer.44 }
%struct.QArrayDataPointer.44 = type { ptr, ptr, i64 }
%class.QCPLayoutElement = type { %class.QCPLayerable.base, ptr, %class.QSize, %class.QSize, i32, %class.QRect, %class.QRect, %class.QMargins, %class.QMargins, %class.QFlags.49, %class.QHash }
%class.QSize = type { i32, i32 }
%class.QMargins = type { i32, i32, i32, i32 }
%class.QFlags.49 = type { i32 }
%class.QHash = type { ptr }

; Function Attrs: inlinehint mustprogress nounwind null_pointer_is_valid sspstrong uwtable
define linkonce_odr noundef i32 @_ZNK5QRect6heightEv(ptr noundef align 4 dereferenceable_or_null(16) %0) #1 comdat align 2 {
  %2 = alloca ptr, align 8
  store ptr %0, ptr %2, align 8
  %3 = load ptr, ptr %2, align 8
  %4 = getelementptr inbounds nuw %class.QRect, ptr %3, i32 0, i32 3
  %5 = load i32, ptr %4, align 4
  %6 = getelementptr inbounds nuw %class.QRect, ptr %3, i32 0, i32 1
  %7 = load i32, ptr %6, align 4
  %8 = sub i32 %5, %7
  %9 = add i32 %8, 1
  ret i32 %9
}

; Function Attrs: inlinehint mustprogress nounwind null_pointer_is_valid sspstrong uwtable
define linkonce_odr noundef i32 @_ZNK5QRect5widthEv(ptr noundef align 4 dereferenceable_or_null(16) %0) #1 comdat align 2 {
  %2 = alloca ptr, align 8
  store ptr %0, ptr %2, align 8
  %3 = load ptr, ptr %2, align 8
  %4 = getelementptr inbounds nuw %class.QRect, ptr %3, i32 0, i32 2
  %5 = load i32, ptr %4, align 4
  %6 = getelementptr inbounds nuw %class.QRect, ptr %3, i32 0, i32 0
  %7 = load i32, ptr %6, align 4
  %8 = sub i32 %5, %7
  %9 = add i32 %8, 1
  ret i32 %9
}

; Function Attrs: mustprogress nounwind null_pointer_is_valid sspstrong uwtable
define linkonce_odr noundef i32 @_ZNK11QCPAxisRect6heightEv(ptr noundef align 8 dereferenceable_or_null(432) %0) #7 comdat align 2 {
  %2 = alloca ptr, align 8
  store ptr %0, ptr %2, align 8
  %3 = load ptr, ptr %2, align 8
  %4 = getelementptr inbounds nuw %class.QCPLayoutElement, ptr %3, i32 0, i32 5
  %5 = call noundef i32 @_ZNK5QRect6heightEv(ptr noundef align 4 dereferenceable_or_null(16) %4) #2
  ret i32 %5
}

; Function Attrs: mustprogress nounwind null_pointer_is_valid sspstrong uwtable
define linkonce_odr noundef i32 @_ZNK11QCPAxisRect5widthEv(ptr noundef align 8 dereferenceable_or_null(432) %0) #7 comdat align 2 {
  %2 = alloca ptr, align 8
  store ptr %0, ptr %2, align 8
  %3 = load ptr, ptr %2, align 8
  %4 = getelementptr inbounds nuw %class.QCPLayoutElement, ptr %3, i32 0, i32 5
  %5 = call noundef i32 @_ZNK5QRect5widthEv(ptr noundef align 4 dereferenceable_or_null(16) %4) #2
  ret i32 %5
}

; Function Attrs: mustprogress nounwind null_pointer_is_valid sspstrong uwtable
define linkonce_odr noundef ptr @_ZNK7QCPAxis8axisRectEv(ptr noundef align 8 dereferenceable_or_null(472) %0) #7 comdat align 2 {
  %2 = alloca ptr, align 8
  store ptr %0, ptr %2, align 8
  %3 = load ptr, ptr %2, align 8
  %4 = getelementptr inbounds nuw %class.QCPAxis, ptr %3, i32 0, i32 2
  %5 = load ptr, ptr %4, align 8
  ret ptr %5
}

; Function Attrs: mustprogress nounwind null_pointer_is_valid sspstrong uwtable
define linkonce_odr noundef double @_ZNK8QCPRange4sizeEv(ptr noundef align 8 dereferenceable_or_null(16) %0) #7 comdat align 2 {
  %2 = alloca ptr, align 8
  store ptr %0, ptr %2, align 8
  %3 = load ptr, ptr %2, align 8
  %4 = getelementptr inbounds nuw %class.QCPRange, ptr %3, i32 0, i32 1
  %5 = load double, ptr %4, align 8
  %6 = getelementptr inbounds nuw %class.QCPRange, ptr %3, i32 0, i32 0
  %7 = load double, ptr %6, align 8
  %8 = fsub double %5, %7
  ret double %8
}

; Function Attrs: mustprogress nounwind null_pointer_is_valid sspstrong uwtable
define linkonce_odr { double, double } @_ZNK7QCPAxis5rangeEv(ptr noundef align 8 dereferenceable_or_null(472) %0) #7 comdat align 2 {
  %2 = alloca %class.QCPRange, align 8
  %3 = alloca ptr, align 8
  store ptr %0, ptr %3, align 8
  %4 = load ptr, ptr %3, align 8
  %5 = getelementptr inbounds nuw %class.QCPAxis, ptr %4, i32 0, i32 29
  call void @llvm.memcpy.p0.p0.i64(ptr align 8 %2, ptr align 8 %5, i64 16, i1 false)
  %6 = load { double, double }, ptr %2, align 8
  ret { double, double } %6
}

; Function Attrs: mustprogress null_pointer_is_valid sspstrong uwtable
define void @_ZN13IOGraphDialog7panAxesEii(ptr noundef align 8 dereferenceable_or_null(384) %0, i32 noundef %1, i32 noundef %2) #3 align 2 {
  %4 = alloca ptr, align 8
  %5 = alloca i32, align 4
  %6 = alloca i32, align 4
  %7 = alloca ptr, align 8
  %8 = alloca double, align 8
  %9 = alloca double, align 8
  %10 = alloca %class.QCPRange, align 8
  %11 = alloca %class.QCPRange, align 8
  store ptr %0, ptr %4, align 8
  store i32 %1, ptr %5, align 4
  store i32 %2, ptr %6, align 4
  %12 = load ptr, ptr %4, align 8
  call void @llvm.lifetime.start.p0(i64 8, ptr %7) #2
  %13 = getelementptr inbounds nuw %class.IOGraphDialog, ptr %12, i32 0, i32 1
  %14 = load ptr, ptr %13, align 8
  %15 = getelementptr inbounds nuw %class.Ui_IOGraphDialog, ptr %14, i32 0, i32 26
  %16 = load ptr, ptr %15, align 8
  store ptr %16, ptr %7, align 8
  call void @llvm.lifetime.start.p0(i64 8, ptr %8) #2
  store double 0.000000e+00, ptr %8, align 8
  call void @llvm.lifetime.start.p0(i64 8, ptr %9) #2
  store double 0.000000e+00, ptr %9, align 8
  %17 = getelementptr inbounds nuw %class.IOGraphDialog, ptr %12, i32 0, i32 19
  store i8 0, ptr %17, align 1
  call void @llvm.lifetime.start.p0(i64 16, ptr %10) #2
  %18 = load ptr, ptr %7, align 8
  %19 = getelementptr inbounds nuw %class.QCustomPlot, ptr %18, i32 0, i32 1
  %20 = load ptr, ptr %19, align 8
  %21 = call { double, double } @_ZNK7QCPAxis5rangeEv(ptr noundef align 8 dereferenceable_or_null(472) %20)
  %22 = getelementptr inbounds nuw { double, double }, ptr %10, i32 0, i32 0
  %23 = extractvalue { double, double } %21, 0
  store double %23, ptr %22, align 8
  %24 = getelementptr inbounds nuw { double, double }, ptr %10, i32 0, i32 1
  %25 = extractvalue { double, double } %21, 1
  store double %25, ptr %24, align 8
  %26 = call noundef double @_ZNK8QCPRange4sizeEv(ptr noundef align 8 dereferenceable_or_null(16) %10)
  %27 = load i32, ptr %5, align 4
  %28 = sitofp i32 %27 to double
  %29 = fmul double %26, %28
  %30 = load ptr, ptr %7, align 8
  %31 = getelementptr inbounds nuw %class.QCustomPlot, ptr %30, i32 0, i32 1
  %32 = load ptr, ptr %31, align 8
  %33 = call noundef ptr @_ZNK7QCPAxis8axisRectEv(ptr noundef align 8 dereferenceable_or_null(472) %32)
  %34 = call noundef i32 @_ZNK11QCPAxisRect5widthEv(ptr noundef align 8 dereferenceable_or_null(432) %33)
  %35 = sitofp i32 %34 to double
  %36 = fdiv double %29, %35
  store double %36, ptr %8, align 8
  call void @llvm.lifetime.end.p0(i64 16, ptr %10) #2
  call void @llvm.lifetime.start.p0(i64 16, ptr %11) #2
  %37 = load ptr, ptr %7, align 8
  %38 = getelementptr inbounds nuw %class.QCustomPlot, ptr %37, i32 0, i32 2
  %39 = load ptr, ptr %38, align 8
  %40 = call { double, double } @_ZNK7QCPAxis5rangeEv(ptr noundef align 8 dereferenceable_or_null(472) %39)
  %41 = getelementptr inbounds nuw { double, double }, ptr %11, i32 0, i32 0
  %42 = extractvalue { double, double } %40, 0
  store double %42, ptr %41, align 8
  %43 = getelementptr inbounds nuw { double, double }, ptr %11, i32 0, i32 1
  %44 = extractvalue { double, double } %40, 1
  store double %44, ptr %43, align 8
  %45 = call noundef double @_ZNK8QCPRange4sizeEv(ptr noundef align 8 dereferenceable_or_null(16) %11)
  %46 = load i32, ptr %6, align 4
  %47 = sitofp i32 %46 to double
  %48 = fmul double %45, %47
  %49 = load ptr, ptr %7, align 8
  %50 = getelementptr inbounds nuw %class.QCustomPlot, ptr %49, i32 0, i32 2
  %51 = load ptr, ptr %50, align 8
  %52 = call noundef ptr @_ZNK7QCPAxis8axisRectEv(ptr noundef align 8 dereferenceable_or_null(472) %51)
  %53 = call noundef i32 @_ZNK11QCPAxisRect6heightEv(ptr noundef align 8 dereferenceable_or_null(432) %52)
  %54 = sitofp i32 %53 to double
  %55 = fdiv double %48, %54
  store double %55, ptr %9, align 8
  call void @llvm.lifetime.end.p0(i64 16, ptr %11) #2
  %56 = load double, ptr %8, align 8
  %57 = fcmp une double %56, 0.000000e+00
  br i1 %57, label %58, label %64

58:                                               ; preds = %3
  %59 = load ptr, ptr %7, align 8
  %60 = getelementptr inbounds nuw %class.QCustomPlot, ptr %59, i32 0, i32 1
  %61 = load ptr, ptr %60, align 8
  %62 = load double, ptr %8, align 8
  call void @_ZN7QCPAxis9moveRangeEd(ptr noundef align 8 dereferenceable_or_null(472) %61, double noundef %62)
  %63 = load ptr, ptr %7, align 8
  call void @_ZN11QCustomPlot6replotENS_15RefreshPriorityE(ptr noundef align 8 dereferenceable_or_null(513) %63, i32 noundef 2)
  br label %64

64:                                               ; preds = %58, %3
  %65 = load double, ptr %9, align 8
  %66 = fcmp une double %65, 0.000000e+00
  br i1 %66, label %67, label %73

67:                                               ; preds = %64
  %68 = load ptr, ptr %7, align 8
  %69 = getelementptr inbounds nuw %class.QCustomPlot, ptr %68, i32 0, i32 2
  %70 = load ptr, ptr %69, align 8
  %71 = load double, ptr %9, align 8
  call void @_ZN7QCPAxis9moveRangeEd(ptr noundef align 8 dereferenceable_or_null(472) %70, double noundef %71)
  %72 = load ptr, ptr %7, align 8
  call void @_ZN11QCustomPlot6replotENS_15RefreshPriorityE(ptr noundef align 8 dereferenceable_or_null(513) %72, i32 noundef 2)
  br label %73

73:                                               ; preds = %67, %64
  call void @llvm.lifetime.end.p0(i64 8, ptr %9) #2
  call void @llvm.lifetime.end.p0(i64 8, ptr %8) #2
  call void @llvm.lifetime.end.p0(i64 8, ptr %7) #2
  ret void
}