; Function Attrs: mustprogress null_pointer_is_valid sspstrong uwtable
define void @_ZN13IOGraphDialog7panAxesEii(ptr noundef align 8 captures(none) dereferenceable_or_null(384) initializes((347, 348)) %0, i32 noundef %1, i32 noundef %2) local_unnamed_addr #2 align 2 {
  %4 = getelementptr inbounds nuw i8, ptr %0, i64 144
  %5 = load ptr, ptr %4, align 8
  %6 = getelementptr inbounds nuw i8, ptr %5, i64 208
  %7 = load ptr, ptr %6, align 8
  %8 = getelementptr inbounds nuw i8, ptr %0, i64 347
  store i8 0, ptr %8, align 1
  %9 = getelementptr inbounds nuw i8, ptr %7, i64 40
  %10 = load ptr, ptr %9, align 8
  %11 = getelementptr inbounds nuw i8, ptr %10, i64 304
  %.sroa.0.0.copyload.i = load double, ptr %11, align 8
  %.sroa.2.0..sroa_idx.i = getelementptr inbounds nuw i8, ptr %10, i64 312
  %.sroa.2.0.copyload.i = load double, ptr %.sroa.2.0..sroa_idx.i, align 8
  %12 = fsub double %.sroa.2.0.copyload.i, %.sroa.0.0.copyload.i
  %13 = sitofp i32 %1 to double
  %14 = fmul double %12, %13
  %15 = getelementptr inbounds nuw i8, ptr %10, i64 64
  %16 = load ptr, ptr %15, align 8
  %17 = getelementptr inbounds nuw i8, ptr %16, i64 92
  %18 = getelementptr inbounds nuw i8, ptr %16, i64 100
  %19 = load i32, ptr %18, align 4
  %20 = load i32, ptr %17, align 4
  %21 = add i32 %19, 1
  %22 = sub i32 %21, %20
  %23 = sitofp i32 %22 to double
  %24 = fdiv double %14, %23
  %25 = getelementptr inbounds nuw i8, ptr %7, i64 48
  %26 = load ptr, ptr %25, align 8
  %27 = getelementptr inbounds nuw i8, ptr %26, i64 304
  %.sroa.0.0.copyload.i15 = load double, ptr %27, align 8
  %.sroa.2.0..sroa_idx.i16 = getelementptr inbounds nuw i8, ptr %26, i64 312
  %.sroa.2.0.copyload.i17 = load double, ptr %.sroa.2.0..sroa_idx.i16, align 8
  %28 = fsub double %.sroa.2.0.copyload.i17, %.sroa.0.0.copyload.i15
  %29 = sitofp i32 %2 to double
  %30 = fmul double %28, %29
  %31 = getelementptr inbounds nuw i8, ptr %26, i64 64
  %32 = load ptr, ptr %31, align 8
  %33 = getelementptr inbounds nuw i8, ptr %32, i64 104
  %34 = load i32, ptr %33, align 4
  %35 = getelementptr inbounds nuw i8, ptr %32, i64 96
  %36 = load i32, ptr %35, align 4
  %37 = add i32 %34, 1
  %38 = sub i32 %37, %36
  %39 = sitofp i32 %38 to double
  %40 = fdiv double %30, %39
  %41 = fcmp une double %24, 0.000000e+00
  br i1 %41, label %42, label %43

42:                                               ; preds = %3
  tail call void @_ZN7QCPAxis9moveRangeEd(ptr noundef align 8 dereferenceable_or_null(472) %10, double noundef %24)
  tail call void @_ZN11QCustomPlot6replotENS_15RefreshPriorityE(ptr noundef align 8 dereferenceable_or_null(513) %7, i32 noundef 2)
  br label %43

43:                                               ; preds = %42, %3
  %44 = fcmp une double %40, 0.000000e+00
  br i1 %44, label %45, label %47

45:                                               ; preds = %43
  %46 = load ptr, ptr %25, align 8
  tail call void @_ZN7QCPAxis9moveRangeEd(ptr noundef align 8 dereferenceable_or_null(472) %46, double noundef %40)
  tail call void @_ZN11QCustomPlot6replotENS_15RefreshPriorityE(ptr noundef align 8 dereferenceable_or_null(513) %7, i32 noundef 2)
  br label %47

47:                                               ; preds = %45, %43
  ret void
}